; Function Attrs: mustprogress uwtable
define hidden void @_Z13do_get_localePKc(ptr noalias nonnull sret(%"class.std::locale") align 8 %agg.result, ptr noundef %name) local_unnamed_addr #0 personality ptr @__gxx_personality_v0 {
entry:
  invoke void @_ZNSt6localeC1EPKc(ptr noundef nonnull align 8 dereferenceable(8) %agg.result, ptr noundef %name)
          to label %return unwind label %lpad

lpad:                                             ; preds = %entry
  %0 = landingpad { ptr, i32 }
          catch ptr @_ZTISt13runtime_error
  %1 = extractvalue { ptr, i32 } %0, 1
  %2 = tail call i32 @llvm.eh.typeid.for(ptr nonnull @_ZTISt13runtime_error) #23
  %matches = icmp eq i32 %1, %2
  br i1 %matches, label %catch, label %eh.resume

catch:                                            ; preds = %lpad
  %3 = extractvalue { ptr, i32 } %0, 0
  %4 = tail call ptr @__cxa_begin_catch(ptr %3) #23
  tail call void @__cxa_end_catch()
  %call = tail call noundef nonnull align 8 dereferenceable(8) ptr @_ZNSt6locale7classicEv()
  tail call void @_ZNSt6localeC1ERKS_(ptr noundef nonnull align 8 dereferenceable(8) %agg.result, ptr noundef nonnull align 8 dereferenceable(8) %call) #23
  br label %return

return:                                           ; preds = %entry, %catch
  ret void

eh.resume:                                        ; preds = %lpad
  resume { ptr, i32 } %0
}